target datalayout = "e-m:e-p270:32:32-p271:32:32-p272:64:64-i64:64-i128:128-f80:128-n8:16:32:64-S128"
target triple = "x86_64-pc-linux-gnu"

%struct.RBasic = type { i64, i64 }
%struct.RString = type { %struct.RBasic, i64, %union.anon }
%union.anon = type { %struct.anon }
%struct.anon = type { ptr, %union.anon.0 }
%union.anon.0 = type { i64 }
%struct.RRegexp = type { %struct.RBasic, ptr, i64, i64 }
%struct.anon.1 = type { [1 x i8] }

@.str.2 = private unnamed_addr constant [8 x i8] c"../re.c\00", align 1
@.str.95 = private unnamed_addr constant [70 x i8] c"/.../n has a non escaped non ASCII character in non ASCII-8BIT script\00", align 1

; Function Attrs: inlinehint nounwind sspstrong willreturn memory(none) uwtable
define internal zeroext i1 @RB_IMMEDIATE_P(i64 noundef %0) #7 {
  %2 = alloca i64, align 8
  store i64 %0, ptr %2, align 8, !tbaa !11
  %3 = load i64, ptr %2, align 8, !tbaa !11
  %4 = and i64 %3, 7
  %5 = icmp ne i64 %4, 0
  ret i1 %5
}

; Function Attrs: inlinehint nounwind sspstrong willreturn memory(none) uwtable
define internal zeroext i1 @RB_SPECIAL_CONST_P(i64 noundef %0) #7 {
  %2 = alloca i64, align 8
  store i64 %0, ptr %2, align 8, !tbaa !11
  %3 = load i64, ptr %2, align 8, !tbaa !11
  %4 = icmp eq i64 %3, 0
  br i1 %4, label %8, label %5

5:                                                ; preds = %1
  %6 = load i64, ptr %2, align 8, !tbaa !11
  %7 = call zeroext i1 @RB_IMMEDIATE_P(i64 noundef %6) #31
  br label %8

8:                                                ; preds = %5, %1
  %9 = phi i1 [ true, %1 ], [ %7, %5 ]
  ret i1 %9
}

; Function Attrs: inlinehint nounwind sspstrong uwtable
define internal i64 @rb_obj_written(i64 noundef %0, i64 noundef %1, i64 noundef %2, ptr noundef %3, i32 noundef %4) #3 {
  %6 = alloca i64, align 8
  %7 = alloca i64, align 8
  %8 = alloca i64, align 8
  %9 = alloca ptr, align 8
  %10 = alloca i32, align 4
  store i64 %0, ptr %6, align 8, !tbaa !11
  store i64 %1, ptr %7, align 8, !tbaa !11
  store i64 %2, ptr %8, align 8, !tbaa !11
  store ptr %3, ptr %9, align 8, !tbaa !13
  store i32 %4, ptr %10, align 4, !tbaa !16
  %11 = load i64, ptr %8, align 8, !tbaa !11
  %12 = call zeroext i1 @RB_SPECIAL_CONST_P(i64 noundef %11) #31
  br i1 %12, label %16, label %13

13:                                               ; preds = %5
  %14 = load i64, ptr %6, align 8, !tbaa !11
  %15 = load i64, ptr %8, align 8, !tbaa !11
  call void @rb_gc_writebarrier(i64 noundef %14, i64 noundef %15)
  br label %16

16:                                               ; preds = %13, %5
  %17 = load i64, ptr %6, align 8, !tbaa !11
  ret i64 %17
}

; Function Attrs: inlinehint nounwind sspstrong willreturn memory(read) uwtable
define internal zeroext i1 @RB_FL_ANY_RAW(i64 noundef %0, i64 noundef %1) #8 {
  %3 = alloca i64, align 8
  %4 = alloca i64, align 8
  store i64 %0, ptr %3, align 8, !tbaa !11
  store i64 %1, ptr %4, align 8, !tbaa !11
  %5 = load i64, ptr %3, align 8, !tbaa !11
  %6 = load i64, ptr %4, align 8, !tbaa !11
  %7 = call i64 @RB_FL_TEST_RAW(i64 noundef %5, i64 noundef %6) #29
  %8 = icmp ne i64 %7, 0
  ret i1 %8
}

; Function Attrs: inlinehint nounwind sspstrong willreturn memory(read) uwtable
define internal i64 @RB_FL_TEST_RAW(i64 noundef %0, i64 noundef %1) #8 {
  %3 = alloca i64, align 8
  %4 = alloca i64, align 8
  store i64 %0, ptr %3, align 8, !tbaa !11
  store i64 %1, ptr %4, align 8, !tbaa !11
  %5 = load i64, ptr %3, align 8, !tbaa !11
  %6 = inttoptr i64 %5 to ptr
  %7 = getelementptr inbounds nuw %struct.RBasic, ptr %6, i32 0, i32 0
  %8 = load i64, ptr %7, align 8, !tbaa !65
  %9 = load i64, ptr %4, align 8, !tbaa !11
  %10 = and i64 %8, %9
  ret i64 %10
}

; Function Attrs: inlinehint nounwind sspstrong uwtable
define internal i64 @rb_obj_write(i64 noundef %0, ptr noundef %1, i64 noundef %2, ptr noundef %3, i32 noundef %4) #3 {
  %6 = alloca i64, align 8
  %7 = alloca ptr, align 8
  %8 = alloca i64, align 8
  %9 = alloca ptr, align 8
  %10 = alloca i32, align 4
  store i64 %0, ptr %6, align 8, !tbaa !11
  store ptr %1, ptr %7, align 8, !tbaa !62
  store i64 %2, ptr %8, align 8, !tbaa !11
  store ptr %3, ptr %9, align 8, !tbaa !13
  store i32 %4, ptr %10, align 4, !tbaa !16
  %11 = load i64, ptr %8, align 8, !tbaa !11
  %12 = load ptr, ptr %7, align 8, !tbaa !62
  store i64 %11, ptr %12, align 8, !tbaa !11
  %13 = load i64, ptr %6, align 8, !tbaa !11
  %14 = load i64, ptr %8, align 8, !tbaa !11
  %15 = load ptr, ptr %9, align 8, !tbaa !13
  %16 = load i32, ptr %10, align 4, !tbaa !16
  %17 = call i64 @rb_obj_written(i64 noundef %13, i64 noundef 36, i64 noundef %14, ptr noundef %15, i32 noundef %16)
  %18 = load i64, ptr %6, align 8, !tbaa !11
  ret i64 %18
}

; Function Attrs: inlinehint nounwind sspstrong willreturn memory(read, argmem: readwrite) uwtable
define internal void @rbimpl_rstring_getmem(ptr dead_on_unwind noalias writable sret(%struct.RString) align 8 %0, i64 noundef %1) #11 {
  %3 = alloca i64, align 8
  store i64 %1, ptr %3, align 8, !tbaa !11
  %4 = load i64, ptr %3, align 8, !tbaa !11
  %5 = call zeroext i1 @RB_FL_ANY_RAW(i64 noundef %4, i64 noundef 8192) #29
  br i1 %5, label %6, label %9

6:                                                ; preds = %2
  %7 = load i64, ptr %3, align 8, !tbaa !11
  %8 = inttoptr i64 %7 to ptr
  call void @llvm.memcpy.p0.p0.i64(ptr align 8 %0, ptr align 8 %8, i64 40, i1 false), !tbaa.struct !69
  br label %20

9:                                                ; preds = %2
  %10 = load i64, ptr %3, align 8, !tbaa !11
  %11 = call i64 @RSTRING_LEN(i64 noundef %10) #29
  %12 = getelementptr inbounds nuw %struct.RString, ptr %0, i32 0, i32 1
  store i64 %11, ptr %12, align 8, !tbaa !57
  %13 = load i64, ptr %3, align 8, !tbaa !11
  %14 = inttoptr i64 %13 to ptr
  %15 = getelementptr inbounds nuw %struct.RString, ptr %14, i32 0, i32 2
  %16 = getelementptr inbounds nuw %struct.anon.1, ptr %15, i32 0, i32 0
  %17 = getelementptr inbounds [1 x i8], ptr %16, i64 0, i64 0
  %18 = getelementptr inbounds nuw %struct.RString, ptr %0, i32 0, i32 2
  %19 = getelementptr inbounds nuw %struct.anon, ptr %18, i32 0, i32 0
  store ptr %17, ptr %19, align 8, !tbaa !15
  br label %20

20:                                               ; preds = %9, %6
  ret void
}

; Function Attrs: inlinehint nounwind sspstrong willreturn memory(read) uwtable
define internal i32 @RB_ENC_CODERANGE(i64 noundef %0) #8 {
  %2 = alloca i64, align 8
  %3 = alloca i64, align 8
  store i64 %0, ptr %2, align 8, !tbaa !11
  call void @llvm.lifetime.start.p0(i64 8, ptr %3) #28
  %4 = load i64, ptr %2, align 8, !tbaa !11
  %5 = call i64 @RB_FL_TEST_RAW(i64 noundef %4, i64 noundef 3145728) #29
  store i64 %5, ptr %3, align 8, !tbaa !11
  %6 = load i64, ptr %3, align 8, !tbaa !11
  %7 = trunc i64 %6 to i32
  call void @llvm.lifetime.end.p0(i64 8, ptr %3) #28
  ret i32 %7
}

; Function Attrs: nounwind sspstrong uwtable
define internal void @reg_set_source(i64 noundef %0, i64 noundef %1, ptr noundef %2) #0 {
  %4 = alloca i64, align 8
  %5 = alloca i64, align 8
  %6 = alloca ptr, align 8
  %7 = alloca ptr, align 8
  store i64 %0, ptr %4, align 8, !tbaa !11
  store i64 %1, ptr %5, align 8, !tbaa !11
  store ptr %2, ptr %6, align 8, !tbaa !20
  call void @llvm.lifetime.start.p0(i64 8, ptr %7) #28
  %8 = load i64, ptr %4, align 8, !tbaa !11
  %9 = call ptr @rb_enc_get(i64 noundef %8)
  store ptr %9, ptr %7, align 8, !tbaa !20
  %10 = load ptr, ptr %7, align 8, !tbaa !20
  %11 = load ptr, ptr %6, align 8, !tbaa !20
  %12 = icmp ne ptr %10, %11
  br i1 %12, label %13, label %18

13:                                               ; preds = %3
  %14 = load i64, ptr %5, align 8, !tbaa !11
  %15 = call i64 @rb_str_dup(i64 noundef %14)
  %16 = load ptr, ptr %7, align 8, !tbaa !20
  store ptr %16, ptr %6, align 8, !tbaa !20
  %17 = call i64 @rb_enc_associate(i64 noundef %15, ptr noundef %16)
  store i64 %17, ptr %5, align 8, !tbaa !11
  br label %18

18:                                               ; preds = %13, %3
  %19 = load i64, ptr %4, align 8, !tbaa !11
  %20 = load i64, ptr %4, align 8, !tbaa !11
  %21 = inttoptr i64 %20 to ptr
  %22 = getelementptr inbounds nuw %struct.RRegexp, ptr %21, i32 0, i32 2
  %23 = load i64, ptr %5, align 8, !tbaa !11
  %24 = call i64 @rb_fstring(i64 noundef %23)
  %25 = call i64 @rb_obj_write(i64 noundef %19, ptr noundef %22, i64 noundef %24, ptr noundef @.str.2, i32 noundef 3358)
  call void @llvm.lifetime.end.p0(i64 8, ptr %7) #28
  ret void
}

; Function Attrs: inlinehint nounwind sspstrong willreturn memory(read) uwtable
define internal i64 @RSTRING_LEN(i64 noundef %0) #8 {
  %2 = alloca i64, align 8
  store i64 %0, ptr %2, align 8, !tbaa !11
  %3 = load i64, ptr %2, align 8, !tbaa !11
  %4 = inttoptr i64 %3 to ptr
  %5 = getelementptr inbounds nuw %struct.RString, ptr %4, i32 0, i32 1
  %6 = load i64, ptr %5, align 8, !tbaa !57
  ret i64 %6
}

; Function Attrs: inlinehint nounwind sspstrong uwtable
define internal ptr @RSTRING_PTR(i64 noundef %0) #3 {
  %2 = alloca i64, align 8
  %3 = alloca ptr, align 8
  %4 = alloca %struct.RString, align 8
  store i64 %0, ptr %2, align 8, !tbaa !11
  call void @llvm.lifetime.start.p0(i64 8, ptr %3) #28
  %5 = load i64, ptr %2, align 8, !tbaa !11
  call void @rbimpl_rstring_getmem(ptr dead_on_unwind writable sret(%struct.RString) align 8 %4, i64 noundef %5) #33
  %6 = getelementptr inbounds nuw %struct.RString, ptr %4, i32 0, i32 2
  %7 = getelementptr inbounds nuw %struct.anon, ptr %6, i32 0, i32 0
  %8 = load ptr, ptr %7, align 8, !tbaa !15
  store ptr %8, ptr %3, align 8, !tbaa !13
  %9 = load ptr, ptr %3, align 8, !tbaa !13
  call void @llvm.lifetime.end.p0(i64 8, ptr %3) #28
  ret ptr %9
}

; Function Attrs: inlinehint nounwind sspstrong uwtable
define internal i32 @str_coderange(i64 noundef %0) #3 {
  %2 = alloca i64, align 8
  %3 = alloca i32, align 4
  store i64 %0, ptr %2, align 8, !tbaa !11
  call void @llvm.lifetime.start.p0(i64 4, ptr %3) #28
  %4 = load i64, ptr %2, align 8, !tbaa !11
  %5 = call i32 @RB_ENC_CODERANGE(i64 noundef %4) #29
  store i32 %5, ptr %3, align 4, !tbaa !16
  %6 = load i32, ptr %3, align 4, !tbaa !16
  %7 = icmp eq i32 %6, 0
  br i1 %7, label %8, label %11

8:                                                ; preds = %1
  %9 = load i64, ptr %2, align 8, !tbaa !11
  %10 = call i32 @rb_enc_str_coderange(i64 noundef %9)
  store i32 %10, ptr %3, align 4, !tbaa !16
  br label %11

11:                                               ; preds = %8, %1
  %12 = load i32, ptr %3, align 4, !tbaa !16
  call void @llvm.lifetime.end.p0(i64 4, ptr %3) #28
  ret i32 %12
}

; Function Attrs: nounwind sspstrong uwtable
define internal i32 @rb_reg_initialize_str(i64 noundef %0, i64 noundef %1, i32 noundef %2, ptr noundef %3, ptr noundef %4, i32 noundef %5) #0 {
  %7 = alloca i32, align 4
  %8 = alloca i64, align 8
  %9 = alloca i64, align 8
  %10 = alloca i32, align 4
  %11 = alloca ptr, align 8
  %12 = alloca ptr, align 8
  %13 = alloca i32, align 4
  %14 = alloca i32, align 4
  %15 = alloca ptr, align 8
  %16 = alloca ptr, align 8
  %17 = alloca ptr, align 8
  %18 = alloca i32, align 4
  store i64 %0, ptr %8, align 8, !tbaa !11
  store i64 %1, ptr %9, align 8, !tbaa !11
  store i32 %2, ptr %10, align 4, !tbaa !16
  store ptr %3, ptr %11, align 8, !tbaa !13
  store ptr %4, ptr %12, align 8, !tbaa !13
  store i32 %5, ptr %13, align 4, !tbaa !16
  call void @llvm.lifetime.start.p0(i64 4, ptr %14) #28
  call void @llvm.lifetime.start.p0(i64 8, ptr %15) #28
  %19 = load i64, ptr %9, align 8, !tbaa !11
  %20 = call ptr @rb_enc_get(i64 noundef %19)
  store ptr %20, ptr %15, align 8, !tbaa !20
  call void @llvm.lifetime.start.p0(i64 8, ptr %16) #28
  %21 = load ptr, ptr %15, align 8, !tbaa !20
  store ptr %21, ptr %16, align 8, !tbaa !20
  %22 = load i32, ptr %10, align 4, !tbaa !16
  %23 = and i32 %22, 32
  %24 = icmp ne i32 %23, 0
  br i1 %24, label %25, label %43

25:                                               ; preds = %6
  call void @llvm.lifetime.start.p0(i64 8, ptr %17) #28
  %26 = call nonnull ptr @rb_ascii8bit_encoding()
  store ptr %26, ptr %17, align 8, !tbaa !20
  %27 = load ptr, ptr %16, align 8, !tbaa !20
  %28 = load ptr, ptr %17, align 8, !tbaa !20
  %29 = icmp ne ptr %27, %28
  br i1 %29, label %30, label %39

30:                                               ; preds = %25
  %31 = load i64, ptr %9, align 8, !tbaa !11
  %32 = call i32 @str_coderange(i64 noundef %31)
  %33 = icmp ne i32 %32, 1048576
  br i1 %33, label %34, label %37

34:                                               ; preds = %30
  %35 = load ptr, ptr %11, align 8, !tbaa !13
  %36 = call i64 @strlcpy(ptr noundef %35, ptr noundef @.str.95, i64 noundef 90)
  store i32 -1, ptr %7, align 4
  store i32 1, ptr %18, align 4
  br label %40

37:                                               ; preds = %30
  %38 = load ptr, ptr %17, align 8, !tbaa !20
  store ptr %38, ptr %16, align 8, !tbaa !20
  br label %39

39:                                               ; preds = %37, %25
  store i32 0, ptr %18, align 4
  br label %40

40:                                               ; preds = %39, %34
  call void @llvm.lifetime.end.p0(i64 8, ptr %17) #28
  %41 = load i32, ptr %18, align 4
  switch i32 %41, label %63 [
    i32 0, label %42
  ]

42:                                               ; preds = %40
  br label %43

43:                                               ; preds = %42, %6
  %44 = load i64, ptr %8, align 8, !tbaa !11
  %45 = load i64, ptr %9, align 8, !tbaa !11
  %46 = call ptr @RSTRING_PTR(i64 noundef %45)
  %47 = load i64, ptr %9, align 8, !tbaa !11
  %48 = call i64 @RSTRING_LEN(i64 noundef %47) #29
  %49 = load ptr, ptr %16, align 8, !tbaa !20
  %50 = load i32, ptr %10, align 4, !tbaa !16
  %51 = load ptr, ptr %11, align 8, !tbaa !13
  %52 = load ptr, ptr %12, align 8, !tbaa !13
  %53 = load i32, ptr %13, align 4, !tbaa !16
  %54 = call i32 @rb_reg_initialize(i64 noundef %44, ptr noundef %46, i64 noundef %48, ptr noundef %49, i32 noundef %50, ptr noundef %51, ptr noundef %52, i32 noundef %53)
  store i32 %54, ptr %14, align 4, !tbaa !16
  %55 = load i32, ptr %14, align 4, !tbaa !16
  %56 = icmp eq i32 %55, 0
  br i1 %56, label %57, label %61

57:                                               ; preds = %43
  %58 = load i64, ptr %8, align 8, !tbaa !11
  %59 = load i64, ptr %9, align 8, !tbaa !11
  %60 = load ptr, ptr %15, align 8, !tbaa !20
  call void @reg_set_source(i64 noundef %58, i64 noundef %59, ptr noundef %60)
  br label %61

61:                                               ; preds = %57, %43
  %62 = load i32, ptr %14, align 4, !tbaa !16
  store i32 %62, ptr %7, align 4
  store i32 1, ptr %18, align 4
  br label %63

63:                                               ; preds = %61, %40
  call void @llvm.lifetime.end.p0(i64 8, ptr %16) #28
  call void @llvm.lifetime.end.p0(i64 8, ptr %15) #28
  call void @llvm.lifetime.end.p0(i64 4, ptr %14) #28
  %64 = load i32, ptr %7, align 4
  ret i32 %64
}