; Function Attrs: nounwind sspstrong uwtable
define internal fastcc range(i32 -1, 1) i32 @rb_reg_initialize_str(i64 noundef %0, i64 noundef %1, i32 noundef %2, ptr noundef nonnull %3, ptr noundef %4, i32 noundef %5) unnamed_addr #2 {
  %7 = tail call ptr @rb_enc_get(i64 noundef %1) #29
  %8 = and i32 %2, 32
  %.not = icmp eq i32 %8, 0
  br i1 %.not, label %.thread, label %9

9:                                                ; preds = %6
  %10 = tail call nonnull ptr @rb_ascii8bit_encoding() #29
  %.not28 = icmp eq ptr %7, %10
  br i1 %.not28, label %.thread, label %11

11:                                               ; preds = %9
  %12 = inttoptr i64 %1 to ptr
  %13 = load i64, ptr %12, align 8, !tbaa !34
  %14 = trunc i64 %13 to i32
  %15 = and i32 %14, 3145728
  %16 = icmp eq i32 %15, 0
  br i1 %16, label %17, label %str_coderange.exit

17:                                               ; preds = %11
  %18 = tail call i32 @rb_enc_str_coderange(i64 noundef %1) #29
  br label %str_coderange.exit

str_coderange.exit:                               ; preds = %11, %17
  %.0.i = phi i32 [ %18, %17 ], [ %15, %11 ]
  %.not29 = icmp eq i32 %.0.i, 1048576
  br i1 %.not29, label %.thread, label %19

19:                                               ; preds = %str_coderange.exit
  tail call void @llvm.memcpy.p0.p0.i64(ptr noundef nonnull align 1 dereferenceable(70) %3, ptr noundef nonnull align 1 dereferenceable(70) @.str.95, i64 noundef 70, i1 false) #29
  br label %reg_set_source.exit

.thread:                                          ; preds = %9, %str_coderange.exit, %6
  %.023 = phi ptr [ %7, %6 ], [ %10, %str_coderange.exit ], [ %7, %9 ]
  %20 = inttoptr i64 %1 to ptr
  %21 = load i64, ptr %20, align 8, !tbaa !34, !noalias !106
  %22 = and i64 %21, 8192
  %.not.i.i = icmp eq i64 %22, 0
  %23 = getelementptr inbounds nuw i8, ptr %20, i64 24
  br i1 %.not.i.i, label %RSTRING_PTR.exit, label %24

24:                                               ; preds = %.thread
  %.sroa.2.0.copyload.i = load ptr, ptr %23, align 8
  br label %RSTRING_PTR.exit

RSTRING_PTR.exit:                                 ; preds = %.thread, %24
  %.sroa.2.0.i = phi ptr [ %.sroa.2.0.copyload.i, %24 ], [ %23, %.thread ]
  %25 = getelementptr inbounds nuw i8, ptr %20, i64 16
  %26 = load i64, ptr %25, align 8, !tbaa !35
  %27 = tail call fastcc i32 @rb_reg_initialize(i64 noundef %0, ptr noundef %.sroa.2.0.i, i64 noundef %26, ptr noundef %.023, i32 noundef %2, ptr noundef %3, ptr noundef %4, i32 noundef %5)
  %28 = icmp eq i32 %27, 0
  br i1 %28, label %29, label %reg_set_source.exit

29:                                               ; preds = %RSTRING_PTR.exit
  %30 = tail call ptr @rb_enc_get(i64 noundef %0) #29
  %.not.i = icmp eq ptr %30, %7
  br i1 %.not.i, label %34, label %31

31:                                               ; preds = %29
  %32 = tail call i64 @rb_str_dup(i64 noundef %1) #29
  %33 = tail call i64 @rb_enc_associate(i64 noundef %32, ptr noundef %30) #29
  br label %34

34:                                               ; preds = %31, %29
  %.0.i30 = phi i64 [ %33, %31 ], [ %1, %29 ]
  %35 = inttoptr i64 %0 to ptr
  %36 = getelementptr inbounds nuw i8, ptr %35, i64 24
  %37 = tail call i64 @rb_fstring(i64 noundef %.0.i30) #29
  store i64 %37, ptr %36, align 8, !tbaa !18
  %38 = icmp eq i64 %37, 0
  %39 = and i64 %37, 7
  %40 = icmp ne i64 %39, 0
  %41 = or i1 %38, %40
  br i1 %41, label %reg_set_source.exit, label %42

42:                                               ; preds = %34
  tail call void @rb_gc_writebarrier(i64 noundef %0, i64 noundef %37) #29
  br label %reg_set_source.exit

reg_set_source.exit:                              ; preds = %42, %34, %19, %RSTRING_PTR.exit
  %.1 = phi i32 [ -1, %19 ], [ -1, %RSTRING_PTR.exit ], [ 0, %34 ], [ 0, %42 ]
  ret i32 %.1
}